; Function Attrs: nounwind uwtable
define internal fastcc i32 @extract_attr_32bit(ptr noundef %0, ptr noundef nonnull %1, ptr noundef %2, ptr noundef %3, ptr noundef nonnull %4, i32 noundef %5, i32 noundef range(i32 1, 17) %6) unnamed_addr #0 {
  %8 = shl nuw nsw i32 %6, 2
  %.not = icmp eq i32 %5, %8
  br i1 %.not, label %13, label %9

9:                                                ; preds = %7
  %10 = getelementptr inbounds nuw i8, ptr %0, i64 72
  %11 = load ptr, ptr %10, align 8, !tbaa !40
  %12 = tail call i32 (ptr, i32, ptr, ...) %11(ptr noundef %0, i32 noundef 17, ptr noundef nonnull @.str.87, ptr noundef %3, i32 noundef %5, ptr noundef nonnull %4, i32 noundef %6, i32 noundef %8) #9
  br label %22

13:                                               ; preds = %7
  %14 = getelementptr inbounds nuw i8, ptr %1, i64 32
  %15 = load ptr, ptr %14, align 8, !tbaa !73
  %16 = zext nneg i32 %5 to i64
  %17 = tail call i32 %15(ptr noundef nonnull %1, ptr noundef %2, i64 noundef %16) #9
  %.not25 = icmp eq i32 %17, 0
  br i1 %.not25, label %22, label %18

18:                                               ; preds = %13
  %19 = getelementptr inbounds nuw i8, ptr %0, i64 72
  %20 = load ptr, ptr %19, align 8, !tbaa !40
  %21 = tail call i32 (ptr, i32, ptr, ...) %20(ptr noundef %0, i32 noundef %17, ptr noundef nonnull @.str.88, ptr noundef %3, ptr noundef nonnull %4) #9
  br label %22

22:                                               ; preds = %13, %18, %9
  %.0 = phi i32 [ %12, %9 ], [ %21, %18 ], [ 0, %13 ]
  ret i32 %.0
}